target datalayout = "e-m:e-p270:32:32-p271:32:32-p272:64:64-i64:64-i128:128-f80:128-n8:16:32:64-S128"
target triple = "x86_64-pc-linux-gnu"

%"class.open_spiel::phantom_go::PhantomGoBoard" = type <{ %"struct.std::array.3", [2 x i8], %"struct.std::array.5", i8, i8, [2 x i8], i32, %"struct.std::array.6", [2 x i8], %"struct.std::array.7", i64, %"struct.std::array.8", i32, i32, i16, [6 x i8] }>
%"struct.std::array.3" = type { [2 x %"struct.std::array.4"] }
%"struct.std::array.4" = type { [361 x i8] }
%"struct.std::array.5" = type { [2 x i32] }
%"struct.std::array.6" = type { [441 x %"struct.open_spiel::phantom_go::PhantomGoBoard::Vertex"] }
%"struct.open_spiel::phantom_go::PhantomGoBoard::Vertex" = type { i16, i16, i8 }
%"struct.std::array.7" = type { [441 x %"struct.open_spiel::phantom_go::PhantomGoBoard::Chain"] }
%"struct.open_spiel::phantom_go::PhantomGoBoard::Chain" = type { i32, i16, i16, i16 }
%"struct.std::array.8" = type { [4 x i16] }
%class.anon.35 = type { ptr }
%"class.open_spiel::phantom_go::PhantomGoBoard::GroupIter" = type <{ ptr, %"struct.std::array.34", i8, %"struct.std::array.8", [2 x i8], i32, i16, i16, i8, [3 x i8] }>
%"struct.std::array.34" = type { [441 x i8] }

; Function Attrs: mustprogress nounwind uwtable
define linkonce_odr noundef nonnull align 2 dereferenceable(2) ptr @_ZNSt14__array_traitsItLm4EE6_S_refERA4_Ktm(ptr noundef nonnull align 2 dereferenceable(8) %0, i64 noundef %1) #4 comdat align 2 {
  %3 = alloca ptr, align 8
  %4 = alloca i64, align 8
  store ptr %0, ptr %3, align 8
  store i64 %1, ptr %4, align 8
  %5 = load ptr, ptr %3, align 8
  %6 = load i64, ptr %4, align 8
  %7 = getelementptr inbounds [4 x i16], ptr %5, i64 0, i64 %6
  ret ptr %7
}

; Function Attrs: mustprogress nounwind uwtable
define linkonce_odr noundef nonnull align 2 dereferenceable(2) ptr @_ZNSt5arrayItLm4EEixEm(ptr noundef nonnull align 2 dereferenceable(8) %0, i64 noundef %1) #4 comdat align 2 {
  %3 = alloca ptr, align 8
  %4 = alloca i64, align 8
  store ptr %0, ptr %3, align 8
  store i64 %1, ptr %4, align 8
  %5 = load ptr, ptr %3, align 8
  %6 = getelementptr inbounds nuw %"struct.std::array.8", ptr %5, i32 0, i32 0
  %7 = load i64, ptr %4, align 8
  %8 = call noundef nonnull align 2 dereferenceable(2) ptr @_ZNSt14__array_traitsItLm4EE6_S_refERA4_Ktm(ptr noundef nonnull align 2 dereferenceable(8) %6, i64 noundef %7) #3
  ret ptr %8
}

; Function Attrs: mustprogress nounwind uwtable
define linkonce_odr noundef zeroext i8 @_ZNK10open_spiel10phantom_go14PhantomGoBoard10PointColorEt(ptr noundef nonnull align 8 dereferenceable(8706) %0, i16 noundef zeroext %1) #4 comdat align 2 {
  %3 = alloca ptr, align 8
  %4 = alloca i16, align 2
  store ptr %0, ptr %3, align 8
  store i16 %1, ptr %4, align 2
  %5 = load ptr, ptr %3, align 8
  %6 = getelementptr inbounds nuw %"class.open_spiel::phantom_go::PhantomGoBoard", ptr %5, i32 0, i32 7
  %7 = load i16, ptr %4, align 2
  %8 = zext i16 %7 to i64
  %9 = call noundef nonnull align 2 dereferenceable(6) ptr @_ZNKSt5arrayIN10open_spiel10phantom_go14PhantomGoBoard6VertexELm441EEixEm(ptr noundef nonnull align 2 dereferenceable(2646) %6, i64 noundef %8) #3
  %10 = getelementptr inbounds nuw %"struct.open_spiel::phantom_go::PhantomGoBoard::Vertex", ptr %9, i32 0, i32 2
  %11 = load i8, ptr %10, align 2
  ret i8 %11
}

; Function Attrs: mustprogress nounwind uwtable
define linkonce_odr noundef zeroext i16 @_ZNK10open_spiel10phantom_go14PhantomGoBoard9ChainHeadEt(ptr noundef nonnull align 8 dereferenceable(8706) %0, i16 noundef zeroext %1) #4 comdat align 2 {
  %3 = alloca ptr, align 8
  %4 = alloca i16, align 2
  store ptr %0, ptr %3, align 8
  store i16 %1, ptr %4, align 2
  %5 = load ptr, ptr %3, align 8
  %6 = getelementptr inbounds nuw %"class.open_spiel::phantom_go::PhantomGoBoard", ptr %5, i32 0, i32 7
  %7 = load i16, ptr %4, align 2
  %8 = zext i16 %7 to i64
  %9 = call noundef nonnull align 2 dereferenceable(6) ptr @_ZNKSt5arrayIN10open_spiel10phantom_go14PhantomGoBoard6VertexELm441EEixEm(ptr noundef nonnull align 2 dereferenceable(2646) %6, i64 noundef %8) #3
  %10 = getelementptr inbounds nuw %"struct.open_spiel::phantom_go::PhantomGoBoard::Vertex", ptr %9, i32 0, i32 0
  %11 = load i16, ptr %10, align 2
  ret i16 %11
}

; Function Attrs: mustprogress nounwind uwtable
define linkonce_odr noundef nonnull align 2 dereferenceable(6) ptr @_ZNSt14__array_traitsIN10open_spiel10phantom_go14PhantomGoBoard6VertexELm441EE6_S_refERA441_KS3_m(ptr noundef nonnull align 2 dereferenceable(2646) %0, i64 noundef %1) #4 comdat align 2 {
  %3 = alloca ptr, align 8
  %4 = alloca i64, align 8
  store ptr %0, ptr %3, align 8
  store i64 %1, ptr %4, align 8
  %5 = load ptr, ptr %3, align 8
  %6 = load i64, ptr %4, align 8
  %7 = getelementptr inbounds [441 x %"struct.open_spiel::phantom_go::PhantomGoBoard::Vertex"], ptr %5, i64 0, i64 %6
  ret ptr %7
}

; Function Attrs: mustprogress nounwind uwtable
define internal void @"_ZZN10open_spiel10phantom_go14PhantomGoBoard9GroupIter4stepEvENK3$_0clEt"(ptr noundef nonnull align 8 dereferenceable(8) %0, i16 noundef zeroext %1) #4 align 2 {
  %3 = alloca ptr, align 8
  %4 = alloca i16, align 2
  %5 = alloca i16, align 2
  store ptr %0, ptr %3, align 8
  store i16 %1, ptr %4, align 2
  %6 = load ptr, ptr %3, align 8
  %7 = getelementptr inbounds nuw %class.anon.35, ptr %6, i32 0, i32 0
  %8 = load ptr, ptr %7, align 8
  %9 = getelementptr inbounds nuw %"class.open_spiel::phantom_go::PhantomGoBoard::GroupIter", ptr %8, i32 0, i32 0
  %10 = load ptr, ptr %9, align 8
  %11 = load i16, ptr %4, align 2
  %12 = call noundef zeroext i16 @_ZNK10open_spiel10phantom_go14PhantomGoBoard9ChainHeadEt(ptr noundef nonnull align 8 dereferenceable(8706) %10, i16 noundef zeroext %11)
  store i16 %12, ptr %5, align 2
  %13 = getelementptr inbounds nuw %"class.open_spiel::phantom_go::PhantomGoBoard::GroupIter", ptr %8, i32 0, i32 0
  %14 = load ptr, ptr %13, align 8
  %15 = load i16, ptr %5, align 2
  %16 = call noundef zeroext i8 @_ZNK10open_spiel10phantom_go14PhantomGoBoard10PointColorEt(ptr noundef nonnull align 8 dereferenceable(8706) %14, i16 noundef zeroext %15)
  %17 = getelementptr inbounds nuw %"class.open_spiel::phantom_go::PhantomGoBoard::GroupIter", ptr %8, i32 0, i32 8
  %18 = load i8, ptr %17, align 4
  %19 = icmp eq i8 %16, %18
  br i1 %19, label %20, label %39

20:                                               ; preds = %2
  %21 = getelementptr inbounds nuw %"class.open_spiel::phantom_go::PhantomGoBoard::GroupIter", ptr %8, i32 0, i32 1
  %22 = load i16, ptr %5, align 2
  %23 = zext i16 %22 to i64
  %24 = call noundef nonnull align 1 dereferenceable(1) ptr @_ZNSt5arrayIbLm441EEixEm(ptr noundef nonnull align 1 dereferenceable(441) %21, i64 noundef %23) #3
  %25 = load i8, ptr %24, align 1
  %26 = trunc i8 %25 to i1
  br i1 %26, label %39, label %27

27:                                               ; preds = %20
  %28 = load i16, ptr %5, align 2
  %29 = getelementptr inbounds nuw %"class.open_spiel::phantom_go::PhantomGoBoard::GroupIter", ptr %8, i32 0, i32 3
  %30 = getelementptr inbounds nuw %"class.open_spiel::phantom_go::PhantomGoBoard::GroupIter", ptr %8, i32 0, i32 5
  %31 = load i32, ptr %30, align 4
  %32 = add nsw i32 %31, 1
  store i32 %32, ptr %30, align 4
  %33 = sext i32 %32 to i64
  %34 = call noundef nonnull align 2 dereferenceable(2) ptr @_ZNSt5arrayItLm4EEixEm(ptr noundef nonnull align 2 dereferenceable(8) %29, i64 noundef %33) #3
  store i16 %28, ptr %34, align 2
  %35 = getelementptr inbounds nuw %"class.open_spiel::phantom_go::PhantomGoBoard::GroupIter", ptr %8, i32 0, i32 1
  %36 = load i16, ptr %5, align 2
  %37 = zext i16 %36 to i64
  %38 = call noundef nonnull align 1 dereferenceable(1) ptr @_ZNSt5arrayIbLm441EEixEm(ptr noundef nonnull align 1 dereferenceable(441) %35, i64 noundef %37) #3
  store i8 1, ptr %38, align 1
  br label %39

39:                                               ; preds = %27, %20, %2
  ret void
}

; Function Attrs: mustprogress nounwind uwtable
define linkonce_odr noundef nonnull align 1 dereferenceable(1) ptr @_ZNSt14__array_traitsIbLm441EE6_S_refERA441_Kbm(ptr noundef nonnull align 1 dereferenceable(441) %0, i64 noundef %1) #4 comdat align 2 {
  %3 = alloca ptr, align 8
  %4 = alloca i64, align 8
  store ptr %0, ptr %3, align 8
  store i64 %1, ptr %4, align 8
  %5 = load ptr, ptr %3, align 8
  %6 = load i64, ptr %4, align 8
  %7 = getelementptr inbounds [441 x i8], ptr %5, i64 0, i64 %6
  ret ptr %7
}

; Function Attrs: mustprogress nounwind uwtable
define linkonce_odr noundef nonnull align 2 dereferenceable(6) ptr @_ZNKSt5arrayIN10open_spiel10phantom_go14PhantomGoBoard6VertexELm441EEixEm(ptr noundef nonnull align 2 dereferenceable(2646) %0, i64 noundef %1) #4 comdat align 2 {
  %3 = alloca ptr, align 8
  %4 = alloca i64, align 8
  store ptr %0, ptr %3, align 8
  store i64 %1, ptr %4, align 8
  %5 = load ptr, ptr %3, align 8
  %6 = getelementptr inbounds nuw %"struct.std::array.6", ptr %5, i32 0, i32 0
  %7 = load i64, ptr %4, align 8
  %8 = call noundef nonnull align 2 dereferenceable(6) ptr @_ZNSt14__array_traitsIN10open_spiel10phantom_go14PhantomGoBoard6VertexELm441EE6_S_refERA441_KS3_m(ptr noundef nonnull align 2 dereferenceable(2646) %6, i64 noundef %7) #3
  ret ptr %8
}

; Function Attrs: mustprogress uwtable
define internal void @"_ZN10open_spiel10phantom_go12_GLOBAL__N_110NeighboursIZNS0_14PhantomGoBoard9GroupIter4stepEvE3$_0EEvtRKT_"(i16 noundef zeroext %0, ptr noundef nonnull align 8 dereferenceable(8) %1) #5 {
  %3 = alloca i16, align 2
  %4 = alloca ptr, align 8
  store i16 %0, ptr %3, align 2
  store ptr %1, ptr %4, align 8
  %5 = load ptr, ptr %4, align 8
  %6 = load i16, ptr %3, align 2
  %7 = zext i16 %6 to i32
  %8 = add nsw i32 %7, 21
  %9 = trunc i32 %8 to i16
  call void @"_ZZN10open_spiel10phantom_go14PhantomGoBoard9GroupIter4stepEvENK3$_0clEt"(ptr noundef nonnull align 8 dereferenceable(8) %5, i16 noundef zeroext %9)
  %10 = load ptr, ptr %4, align 8
  %11 = load i16, ptr %3, align 2
  %12 = zext i16 %11 to i32
  %13 = add nsw i32 %12, 1
  %14 = trunc i32 %13 to i16
  call void @"_ZZN10open_spiel10phantom_go14PhantomGoBoard9GroupIter4stepEvENK3$_0clEt"(ptr noundef nonnull align 8 dereferenceable(8) %10, i16 noundef zeroext %14)
  %15 = load ptr, ptr %4, align 8
  %16 = load i16, ptr %3, align 2
  %17 = zext i16 %16 to i32
  %18 = sub nsw i32 %17, 1
  %19 = trunc i32 %18 to i16
  call void @"_ZZN10open_spiel10phantom_go14PhantomGoBoard9GroupIter4stepEvENK3$_0clEt"(ptr noundef nonnull align 8 dereferenceable(8) %15, i16 noundef zeroext %19)
  %20 = load ptr, ptr %4, align 8
  %21 = load i16, ptr %3, align 2
  %22 = zext i16 %21 to i32
  %23 = sub nsw i32 %22, 21
  %24 = trunc i32 %23 to i16
  call void @"_ZZN10open_spiel10phantom_go14PhantomGoBoard9GroupIter4stepEvENK3$_0clEt"(ptr noundef nonnull align 8 dereferenceable(8) %20, i16 noundef zeroext %24)
  ret void
}

; Function Attrs: mustprogress nounwind uwtable
define linkonce_odr noundef nonnull align 1 dereferenceable(1) ptr @_ZNSt5arrayIbLm441EEixEm(ptr noundef nonnull align 1 dereferenceable(441) %0, i64 noundef %1) #4 comdat align 2 {
  %3 = alloca ptr, align 8
  %4 = alloca i64, align 8
  store ptr %0, ptr %3, align 8
  store i64 %1, ptr %4, align 8
  %5 = load ptr, ptr %3, align 8
  %6 = getelementptr inbounds nuw %"struct.std::array.34", ptr %5, i32 0, i32 0
  %7 = load i64, ptr %4, align 8
  %8 = call noundef nonnull align 1 dereferenceable(1) ptr @_ZNSt14__array_traitsIbLm441EE6_S_refERA441_Kbm(ptr noundef nonnull align 1 dereferenceable(441) %6, i64 noundef %7) #3
  ret ptr %8
}

; Function Attrs: mustprogress uwtable
define void @_ZN10open_spiel10phantom_go14PhantomGoBoard9GroupIter4stepEv(ptr noundef nonnull align 8 dereferenceable(469) %0) #5 align 2 {
  %2 = alloca ptr, align 8
  %3 = alloca %class.anon.35, align 8
  store ptr %0, ptr %2, align 8
  %4 = load ptr, ptr %2, align 8
  %5 = getelementptr inbounds nuw %"class.open_spiel::phantom_go::PhantomGoBoard::GroupIter", ptr %4, i32 0, i32 5
  %6 = load i32, ptr %5, align 4
  %7 = add nsw i32 %6, -1
  store i32 %7, ptr %5, align 4
  br label %8

8:                                                ; preds = %23, %1
  %9 = getelementptr inbounds nuw %"class.open_spiel::phantom_go::PhantomGoBoard::GroupIter", ptr %4, i32 0, i32 5
  %10 = load i32, ptr %9, align 4
  %11 = icmp slt i32 %10, 0
  br i1 %11, label %12, label %21

12:                                               ; preds = %8
  %13 = getelementptr inbounds nuw %"class.open_spiel::phantom_go::PhantomGoBoard::GroupIter", ptr %4, i32 0, i32 1
  %14 = getelementptr inbounds nuw %"class.open_spiel::phantom_go::PhantomGoBoard::GroupIter", ptr %4, i32 0, i32 7
  %15 = load i16, ptr %14, align 2
  %16 = zext i16 %15 to i64
  %17 = call noundef nonnull align 1 dereferenceable(1) ptr @_ZNSt5arrayIbLm441EEixEm(ptr noundef nonnull align 1 dereferenceable(441) %13, i64 noundef %16) #3
  %18 = load i8, ptr %17, align 1
  %19 = trunc i8 %18 to i1
  %20 = xor i1 %19, true
  br label %21

21:                                               ; preds = %12, %8
  %22 = phi i1 [ false, %8 ], [ %20, %12 ]
  br i1 %22, label %23, label %42

23:                                               ; preds = %21
  %24 = getelementptr inbounds nuw %"class.open_spiel::phantom_go::PhantomGoBoard::GroupIter", ptr %4, i32 0, i32 7
  %25 = load i16, ptr %24, align 2
  %26 = getelementptr inbounds nuw %class.anon.35, ptr %3, i32 0, i32 0
  store ptr %4, ptr %26, align 8
  call void @"_ZN10open_spiel10phantom_go12_GLOBAL__N_110NeighboursIZNS0_14PhantomGoBoard9GroupIter4stepEvE3$_0EEvtRKT_"(i16 noundef zeroext %25, ptr noundef nonnull align 8 dereferenceable(8) %3)
  %27 = getelementptr inbounds nuw %"class.open_spiel::phantom_go::PhantomGoBoard::GroupIter", ptr %4, i32 0, i32 1
  %28 = getelementptr inbounds nuw %"class.open_spiel::phantom_go::PhantomGoBoard::GroupIter", ptr %4, i32 0, i32 7
  %29 = load i16, ptr %28, align 2
  %30 = zext i16 %29 to i64
  %31 = call noundef nonnull align 1 dereferenceable(1) ptr @_ZNSt5arrayIbLm441EEixEm(ptr noundef nonnull align 1 dereferenceable(441) %27, i64 noundef %30) #3
  store i8 1, ptr %31, align 1
  %32 = getelementptr inbounds nuw %"class.open_spiel::phantom_go::PhantomGoBoard::GroupIter", ptr %4, i32 0, i32 0
  %33 = load ptr, ptr %32, align 8
  %34 = getelementptr inbounds nuw %"class.open_spiel::phantom_go::PhantomGoBoard", ptr %33, i32 0, i32 7
  %35 = getelementptr inbounds nuw %"class.open_spiel::phantom_go::PhantomGoBoard::GroupIter", ptr %4, i32 0, i32 7
  %36 = load i16, ptr %35, align 2
  %37 = zext i16 %36 to i64
  %38 = call noundef nonnull align 2 dereferenceable(6) ptr @_ZNKSt5arrayIN10open_spiel10phantom_go14PhantomGoBoard6VertexELm441EEixEm(ptr noundef nonnull align 2 dereferenceable(2646) %34, i64 noundef %37) #3
  %39 = getelementptr inbounds nuw %"struct.open_spiel::phantom_go::PhantomGoBoard::Vertex", ptr %38, i32 0, i32 1
  %40 = load i16, ptr %39, align 2
  %41 = getelementptr inbounds nuw %"class.open_spiel::phantom_go::PhantomGoBoard::GroupIter", ptr %4, i32 0, i32 7
  store i16 %40, ptr %41, align 2
  br label %8, !llvm.loop !20

42:                                               ; preds = %21
  ret void
}