; Function Attrs: mustprogress nofree norecurse nosync nounwind memory(read, argmem: readwrite, inaccessiblemem: none) uwtable
define void @_ZN10open_spiel10phantom_go14PhantomGoBoard9GroupIter4stepEv(ptr nocapture noundef nonnull align 8 dereferenceable(469) %0) local_unnamed_addr #13 align 2 {
  %2 = getelementptr inbounds nuw i8, ptr %0, i64 460
  %3 = load i32, ptr %2, align 4
  %4 = add nsw i32 %3, -1
  store i32 %4, ptr %2, align 4
  %5 = icmp slt i32 %3, 1
  br i1 %5, label %.lr.ph, label %.critedge

.lr.ph:                                           ; preds = %1
  %6 = getelementptr inbounds nuw i8, ptr %0, i64 8
  %7 = getelementptr inbounds nuw i8, ptr %0, i64 466
  %8 = getelementptr inbounds nuw i8, ptr %0, i64 468
  %9 = getelementptr inbounds nuw i8, ptr %0, i64 450
  %.pre = load i16, ptr %7, align 2
  br label %10

10:                                               ; preds = %.lr.ph, %"_ZN10open_spiel10phantom_go12_GLOBAL__N_110NeighboursIZNS0_14PhantomGoBoard9GroupIter4stepEvE3$_0EEvtRKT_.exit"
  %11 = phi i16 [ %.pre, %.lr.ph ], [ %105, %"_ZN10open_spiel10phantom_go12_GLOBAL__N_110NeighboursIZNS0_14PhantomGoBoard9GroupIter4stepEvE3$_0EEvtRKT_.exit" ]
  %12 = phi i32 [ %4, %.lr.ph ], [ %.pr, %"_ZN10open_spiel10phantom_go12_GLOBAL__N_110NeighboursIZNS0_14PhantomGoBoard9GroupIter4stepEvE3$_0EEvtRKT_.exit" ]
  %13 = zext i16 %11 to i64
  %14 = getelementptr inbounds [441 x i8], ptr %6, i64 0, i64 %13
  %15 = load i8, ptr %14, align 1
  %16 = trunc i8 %15 to i1
  br i1 %16, label %.critedge, label %17

17:                                               ; preds = %10
  %18 = add i16 %11, 21
  %19 = load ptr, ptr %0, align 8
  %20 = getelementptr inbounds nuw i8, ptr %19, i64 740
  %21 = zext i16 %18 to i64
  %22 = getelementptr inbounds [441 x %"struct.open_spiel::phantom_go::PhantomGoBoard::Vertex"], ptr %20, i64 0, i64 %21
  %23 = load i16, ptr %22, align 2
  %24 = zext i16 %23 to i64
  %25 = getelementptr inbounds [441 x %"struct.open_spiel::phantom_go::PhantomGoBoard::Vertex"], ptr %20, i64 0, i64 %24, i32 2
  %26 = load i8, ptr %25, align 2
  %27 = load i8, ptr %8, align 4
  %28 = icmp eq i8 %26, %27
  br i1 %28, label %29, label %"_ZZN10open_spiel10phantom_go14PhantomGoBoard9GroupIter4stepEvENK3$_0clEt.exit.i"

29:                                               ; preds = %17
  %30 = getelementptr inbounds [441 x i8], ptr %6, i64 0, i64 %24
  %31 = load i8, ptr %30, align 1
  %32 = trunc i8 %31 to i1
  br i1 %32, label %"_ZZN10open_spiel10phantom_go14PhantomGoBoard9GroupIter4stepEvENK3$_0clEt.exit.i", label %33

33:                                               ; preds = %29
  %34 = add nsw i32 %12, 1
  store i32 %34, ptr %2, align 4
  %35 = sext i32 %34 to i64
  %36 = getelementptr inbounds [4 x i16], ptr %9, i64 0, i64 %35
  store i16 %23, ptr %36, align 2
  store i8 1, ptr %30, align 1
  %.pre.i = load ptr, ptr %0, align 8
  %.pre14.i = load i8, ptr %8, align 4
  br label %"_ZZN10open_spiel10phantom_go14PhantomGoBoard9GroupIter4stepEvENK3$_0clEt.exit.i"

"_ZZN10open_spiel10phantom_go14PhantomGoBoard9GroupIter4stepEvENK3$_0clEt.exit.i": ; preds = %33, %29, %17
  %37 = phi i8 [ %27, %17 ], [ %26, %29 ], [ %.pre14.i, %33 ]
  %38 = phi ptr [ %19, %17 ], [ %19, %29 ], [ %.pre.i, %33 ]
  %39 = add i16 %11, 1
  %40 = getelementptr inbounds nuw i8, ptr %38, i64 740
  %41 = zext i16 %39 to i64
  %42 = getelementptr inbounds [441 x %"struct.open_spiel::phantom_go::PhantomGoBoard::Vertex"], ptr %40, i64 0, i64 %41
  %43 = load i16, ptr %42, align 2
  %44 = zext i16 %43 to i64
  %45 = getelementptr inbounds [441 x %"struct.open_spiel::phantom_go::PhantomGoBoard::Vertex"], ptr %40, i64 0, i64 %44, i32 2
  %46 = load i8, ptr %45, align 2
  %47 = icmp eq i8 %46, %37
  br i1 %47, label %48, label %"_ZZN10open_spiel10phantom_go14PhantomGoBoard9GroupIter4stepEvENK3$_0clEt.exit10.i"

48:                                               ; preds = %"_ZZN10open_spiel10phantom_go14PhantomGoBoard9GroupIter4stepEvENK3$_0clEt.exit.i"
  %49 = getelementptr inbounds [441 x i8], ptr %6, i64 0, i64 %44
  %50 = load i8, ptr %49, align 1
  %51 = trunc i8 %50 to i1
  br i1 %51, label %"_ZZN10open_spiel10phantom_go14PhantomGoBoard9GroupIter4stepEvENK3$_0clEt.exit10.i", label %52

52:                                               ; preds = %48
  %53 = load i32, ptr %2, align 4
  %54 = add nsw i32 %53, 1
  store i32 %54, ptr %2, align 4
  %55 = sext i32 %54 to i64
  %56 = getelementptr inbounds [4 x i16], ptr %9, i64 0, i64 %55
  store i16 %43, ptr %56, align 2
  store i8 1, ptr %49, align 1
  %.pre16.i = load ptr, ptr %0, align 8
  %.pre18.i = load i8, ptr %8, align 4
  br label %"_ZZN10open_spiel10phantom_go14PhantomGoBoard9GroupIter4stepEvENK3$_0clEt.exit10.i"

"_ZZN10open_spiel10phantom_go14PhantomGoBoard9GroupIter4stepEvENK3$_0clEt.exit10.i": ; preds = %52, %48, %"_ZZN10open_spiel10phantom_go14PhantomGoBoard9GroupIter4stepEvENK3$_0clEt.exit.i"
  %57 = phi i8 [ %37, %"_ZZN10open_spiel10phantom_go14PhantomGoBoard9GroupIter4stepEvENK3$_0clEt.exit.i" ], [ %37, %48 ], [ %.pre18.i, %52 ]
  %58 = phi ptr [ %38, %"_ZZN10open_spiel10phantom_go14PhantomGoBoard9GroupIter4stepEvENK3$_0clEt.exit.i" ], [ %38, %48 ], [ %.pre16.i, %52 ]
  %59 = add i16 %11, -1
  %60 = getelementptr inbounds nuw i8, ptr %58, i64 740
  %61 = zext i16 %59 to i64
  %62 = getelementptr inbounds [441 x %"struct.open_spiel::phantom_go::PhantomGoBoard::Vertex"], ptr %60, i64 0, i64 %61
  %63 = load i16, ptr %62, align 2
  %64 = zext i16 %63 to i64
  %65 = getelementptr inbounds [441 x %"struct.open_spiel::phantom_go::PhantomGoBoard::Vertex"], ptr %60, i64 0, i64 %64, i32 2
  %66 = load i8, ptr %65, align 2
  %67 = icmp eq i8 %66, %57
  br i1 %67, label %68, label %"_ZZN10open_spiel10phantom_go14PhantomGoBoard9GroupIter4stepEvENK3$_0clEt.exit11.i"

68:                                               ; preds = %"_ZZN10open_spiel10phantom_go14PhantomGoBoard9GroupIter4stepEvENK3$_0clEt.exit10.i"
  %69 = getelementptr inbounds [441 x i8], ptr %6, i64 0, i64 %64
  %70 = load i8, ptr %69, align 1
  %71 = trunc i8 %70 to i1
  br i1 %71, label %"_ZZN10open_spiel10phantom_go14PhantomGoBoard9GroupIter4stepEvENK3$_0clEt.exit11.i", label %72

72:                                               ; preds = %68
  %73 = load i32, ptr %2, align 4
  %74 = add nsw i32 %73, 1
  store i32 %74, ptr %2, align 4
  %75 = sext i32 %74 to i64
  %76 = getelementptr inbounds [4 x i16], ptr %9, i64 0, i64 %75
  store i16 %63, ptr %76, align 2
  store i8 1, ptr %69, align 1
  %.pre20.i = load ptr, ptr %0, align 8
  %.pre22.i = load i8, ptr %8, align 4
  br label %"_ZZN10open_spiel10phantom_go14PhantomGoBoard9GroupIter4stepEvENK3$_0clEt.exit11.i"

"_ZZN10open_spiel10phantom_go14PhantomGoBoard9GroupIter4stepEvENK3$_0clEt.exit11.i": ; preds = %72, %68, %"_ZZN10open_spiel10phantom_go14PhantomGoBoard9GroupIter4stepEvENK3$_0clEt.exit10.i"
  %77 = phi i8 [ %57, %"_ZZN10open_spiel10phantom_go14PhantomGoBoard9GroupIter4stepEvENK3$_0clEt.exit10.i" ], [ %57, %68 ], [ %.pre22.i, %72 ]
  %78 = phi ptr [ %58, %"_ZZN10open_spiel10phantom_go14PhantomGoBoard9GroupIter4stepEvENK3$_0clEt.exit10.i" ], [ %58, %68 ], [ %.pre20.i, %72 ]
  %79 = add i16 %11, -21
  %80 = getelementptr inbounds nuw i8, ptr %78, i64 740
  %81 = zext i16 %79 to i64
  %82 = getelementptr inbounds [441 x %"struct.open_spiel::phantom_go::PhantomGoBoard::Vertex"], ptr %80, i64 0, i64 %81
  %83 = load i16, ptr %82, align 2
  %84 = zext i16 %83 to i64
  %85 = getelementptr inbounds [441 x %"struct.open_spiel::phantom_go::PhantomGoBoard::Vertex"], ptr %80, i64 0, i64 %84, i32 2
  %86 = load i8, ptr %85, align 2
  %87 = icmp eq i8 %86, %77
  br i1 %87, label %88, label %"_ZN10open_spiel10phantom_go12_GLOBAL__N_110NeighboursIZNS0_14PhantomGoBoard9GroupIter4stepEvE3$_0EEvtRKT_.exit"

88:                                               ; preds = %"_ZZN10open_spiel10phantom_go14PhantomGoBoard9GroupIter4stepEvENK3$_0clEt.exit11.i"
  %89 = getelementptr inbounds [441 x i8], ptr %6, i64 0, i64 %84
  %90 = load i8, ptr %89, align 1
  %91 = trunc i8 %90 to i1
  br i1 %91, label %"_ZN10open_spiel10phantom_go12_GLOBAL__N_110NeighboursIZNS0_14PhantomGoBoard9GroupIter4stepEvE3$_0EEvtRKT_.exit", label %92

92:                                               ; preds = %88
  %93 = load i32, ptr %2, align 4
  %94 = add nsw i32 %93, 1
  store i32 %94, ptr %2, align 4
  %95 = sext i32 %94 to i64
  %96 = getelementptr inbounds [4 x i16], ptr %9, i64 0, i64 %95
  store i16 %83, ptr %96, align 2
  store i8 1, ptr %89, align 1
  %.pre2 = load ptr, ptr %0, align 8
  br label %"_ZN10open_spiel10phantom_go12_GLOBAL__N_110NeighboursIZNS0_14PhantomGoBoard9GroupIter4stepEvE3$_0EEvtRKT_.exit"

"_ZN10open_spiel10phantom_go12_GLOBAL__N_110NeighboursIZNS0_14PhantomGoBoard9GroupIter4stepEvE3$_0EEvtRKT_.exit": ; preds = %"_ZZN10open_spiel10phantom_go14PhantomGoBoard9GroupIter4stepEvENK3$_0clEt.exit11.i", %88, %92
  %97 = phi ptr [ %78, %"_ZZN10open_spiel10phantom_go14PhantomGoBoard9GroupIter4stepEvENK3$_0clEt.exit11.i" ], [ %78, %88 ], [ %.pre2, %92 ]
  %98 = load i16, ptr %7, align 2
  %99 = zext i16 %98 to i64
  %100 = getelementptr inbounds [441 x i8], ptr %6, i64 0, i64 %99
  store i8 1, ptr %100, align 1
  %101 = getelementptr inbounds nuw i8, ptr %97, i64 740
  %102 = load i16, ptr %7, align 2
  %103 = zext i16 %102 to i64
  %104 = getelementptr inbounds [441 x %"struct.open_spiel::phantom_go::PhantomGoBoard::Vertex"], ptr %101, i64 0, i64 %103, i32 1
  %105 = load i16, ptr %104, align 2
  store i16 %105, ptr %7, align 2
  %.pr = load i32, ptr %2, align 4
  %106 = icmp slt i32 %.pr, 0
  br i1 %106, label %10, label %.critedge, !llvm.loop !24

.critedge:                                        ; preds = %10, %"_ZN10open_spiel10phantom_go12_GLOBAL__N_110NeighboursIZNS0_14PhantomGoBoard9GroupIter4stepEvE3$_0EEvtRKT_.exit", %1
  ret void
}